target datalayout = "e-m:e-p270:32:32-p271:32:32-p272:64:64-i64:64-i128:128-f80:128-n8:16:32:64-S128"
target triple = "x86_64-pc-linux-gnu"

; Function Attrs: inlinehint nounwind uwtable
define internal i32 @Kit_WordCountOnes(i32 noundef %0) #2 {
  %2 = alloca i32, align 4
  store i32 %0, ptr %2, align 4, !tbaa !8
  %3 = load i32, ptr %2, align 4, !tbaa !8
  %4 = and i32 %3, 1431655765
  %5 = load i32, ptr %2, align 4, !tbaa !8
  %6 = lshr i32 %5, 1
  %7 = and i32 %6, 1431655765
  %8 = add i32 %4, %7
  store i32 %8, ptr %2, align 4, !tbaa !8
  %9 = load i32, ptr %2, align 4, !tbaa !8
  %10 = and i32 %9, 858993459
  %11 = load i32, ptr %2, align 4, !tbaa !8
  %12 = lshr i32 %11, 2
  %13 = and i32 %12, 858993459
  %14 = add i32 %10, %13
  store i32 %14, ptr %2, align 4, !tbaa !8
  %15 = load i32, ptr %2, align 4, !tbaa !8
  %16 = and i32 %15, 252645135
  %17 = load i32, ptr %2, align 4, !tbaa !8
  %18 = lshr i32 %17, 4
  %19 = and i32 %18, 252645135
  %20 = add i32 %16, %19
  store i32 %20, ptr %2, align 4, !tbaa !8
  %21 = load i32, ptr %2, align 4, !tbaa !8
  %22 = and i32 %21, 16711935
  %23 = load i32, ptr %2, align 4, !tbaa !8
  %24 = lshr i32 %23, 8
  %25 = and i32 %24, 16711935
  %26 = add i32 %22, %25
  store i32 %26, ptr %2, align 4, !tbaa !8
  %27 = load i32, ptr %2, align 4, !tbaa !8
  %28 = and i32 %27, 65535
  %29 = load i32, ptr %2, align 4, !tbaa !8
  %30 = lshr i32 %29, 16
  %31 = add i32 %28, %30
  ret i32 %31
}

; Function Attrs: inlinehint nounwind uwtable
define internal i32 @Kit_TruthWordNum(i32 noundef %0) #2 {
  %2 = alloca i32, align 4
  store i32 %0, ptr %2, align 4, !tbaa !8
  %3 = load i32, ptr %2, align 4, !tbaa !8
  %4 = icmp sle i32 %3, 5
  br i1 %4, label %5, label %6

5:                                                ; preds = %1
  br label %10

6:                                                ; preds = %1
  %7 = load i32, ptr %2, align 4, !tbaa !8
  %8 = sub nsw i32 %7, 5
  %9 = shl i32 1, %8
  br label %10

10:                                               ; preds = %6, %5
  %11 = phi i32 [ 1, %5 ], [ %9, %6 ]
  ret i32 %11
}

; Function Attrs: inlinehint nounwind uwtable
define internal i32 @Kit_TruthCountOnes(ptr noundef %0, i32 noundef %1) #2 {
  %3 = alloca ptr, align 8
  %4 = alloca i32, align 4
  %5 = alloca i32, align 4
  %6 = alloca i32, align 4
  store ptr %0, ptr %3, align 8, !tbaa !3
  store i32 %1, ptr %4, align 4, !tbaa !8
  call void @llvm.lifetime.start.p0(i64 4, ptr %5) #8
  call void @llvm.lifetime.start.p0(i64 4, ptr %6) #8
  store i32 0, ptr %6, align 4, !tbaa !8
  %7 = load i32, ptr %4, align 4, !tbaa !8
  %8 = call i32 @Kit_TruthWordNum(i32 noundef %7)
  %9 = sub nsw i32 %8, 1
  store i32 %9, ptr %5, align 4, !tbaa !8
  br label %10

10:                                               ; preds = %22, %2
  %11 = load i32, ptr %5, align 4, !tbaa !8
  %12 = icmp sge i32 %11, 0
  br i1 %12, label %13, label %25

13:                                               ; preds = %10
  %14 = load ptr, ptr %3, align 8, !tbaa !3
  %15 = load i32, ptr %5, align 4, !tbaa !8
  %16 = sext i32 %15 to i64
  %17 = getelementptr inbounds i32, ptr %14, i64 %16
  %18 = load i32, ptr %17, align 4, !tbaa !8
  %19 = call i32 @Kit_WordCountOnes(i32 noundef %18)
  %20 = load i32, ptr %6, align 4, !tbaa !8
  %21 = add nsw i32 %20, %19
  store i32 %21, ptr %6, align 4, !tbaa !8
  br label %22

22:                                               ; preds = %13
  %23 = load i32, ptr %5, align 4, !tbaa !8
  %24 = add nsw i32 %23, -1
  store i32 %24, ptr %5, align 4, !tbaa !8
  br label %10, !llvm.loop !167

25:                                               ; preds = %10
  %26 = load i32, ptr %6, align 4, !tbaa !8
  call void @llvm.lifetime.end.p0(i64 4, ptr %6) #8
  call void @llvm.lifetime.end.p0(i64 4, ptr %5) #8
  ret i32 %26
}

; Function Attrs: nounwind uwtable
define void @Kit_TruthCountOnesInCofsSlow(ptr noundef %0, i32 noundef %1, ptr noundef %2, ptr noundef %3) #0 {
  %5 = alloca ptr, align 8
  %6 = alloca i32, align 4
  %7 = alloca ptr, align 8
  %8 = alloca ptr, align 8
  %9 = alloca i32, align 4
  store ptr %0, ptr %5, align 8, !tbaa !3
  store i32 %1, ptr %6, align 4, !tbaa !8
  store ptr %2, ptr %7, align 8, !tbaa !3
  store ptr %3, ptr %8, align 8, !tbaa !3
  call void @llvm.lifetime.start.p0(i64 4, ptr %9) #8
  store i32 0, ptr %9, align 4, !tbaa !8
  br label %10

10:                                               ; preds = %43, %4
  %11 = load i32, ptr %9, align 4, !tbaa !8
  %12 = load i32, ptr %6, align 4, !tbaa !8
  %13 = icmp slt i32 %11, %12
  br i1 %13, label %14, label %46

14:                                               ; preds = %10
  %15 = load ptr, ptr %8, align 8, !tbaa !3
  %16 = load ptr, ptr %5, align 8, !tbaa !3
  %17 = load i32, ptr %6, align 4, !tbaa !8
  %18 = load i32, ptr %9, align 4, !tbaa !8
  call void @Kit_TruthCofactor0New(ptr noundef %15, ptr noundef %16, i32 noundef %17, i32 noundef %18)
  %19 = load ptr, ptr %8, align 8, !tbaa !3
  %20 = load i32, ptr %6, align 4, !tbaa !8
  %21 = call i32 @Kit_TruthCountOnes(ptr noundef %19, i32 noundef %20)
  %22 = sdiv i32 %21, 2
  %23 = load ptr, ptr %7, align 8, !tbaa !3
  %24 = load i32, ptr %9, align 4, !tbaa !8
  %25 = mul nsw i32 2, %24
  %26 = add nsw i32 %25, 0
  %27 = sext i32 %26 to i64
  %28 = getelementptr inbounds i32, ptr %23, i64 %27
  store i32 %22, ptr %28, align 4, !tbaa !8
  %29 = load ptr, ptr %8, align 8, !tbaa !3
  %30 = load ptr, ptr %5, align 8, !tbaa !3
  %31 = load i32, ptr %6, align 4, !tbaa !8
  %32 = load i32, ptr %9, align 4, !tbaa !8
  call void @Kit_TruthCofactor1New(ptr noundef %29, ptr noundef %30, i32 noundef %31, i32 noundef %32)
  %33 = load ptr, ptr %8, align 8, !tbaa !3
  %34 = load i32, ptr %6, align 4, !tbaa !8
  %35 = call i32 @Kit_TruthCountOnes(ptr noundef %33, i32 noundef %34)
  %36 = sdiv i32 %35, 2
  %37 = load ptr, ptr %7, align 8, !tbaa !3
  %38 = load i32, ptr %9, align 4, !tbaa !8
  %39 = mul nsw i32 2, %38
  %40 = add nsw i32 %39, 1
  %41 = sext i32 %40 to i64
  %42 = getelementptr inbounds i32, ptr %37, i64 %41
  store i32 %36, ptr %42, align 4, !tbaa !8
  br label %43

43:                                               ; preds = %14
  %44 = load i32, ptr %9, align 4, !tbaa !8
  %45 = add nsw i32 %44, 1
  store i32 %45, ptr %9, align 4, !tbaa !8
  br label %10, !llvm.loop !166

46:                                               ; preds = %10
  call void @llvm.lifetime.end.p0(i64 4, ptr %9) #8
  ret void
}